; Function Attrs: mustprogress nofree norecurse nosync nounwind willreturn memory(readwrite, inaccessiblemem: none) uwtable
define hidden void @_ZN5zxing9BitMatrix5clearEv(ptr nocapture noundef nonnull readonly align 8 dereferenceable(346) %0) local_unnamed_addr #4 align 2 {
  %2 = getelementptr inbounds i8, ptr %0, i64 312
  %3 = load ptr, ptr %2, align 8
  %4 = getelementptr inbounds i8, ptr %3, i64 16
  %5 = getelementptr inbounds i8, ptr %3, i64 24
  %6 = load ptr, ptr %5, align 8
  %7 = load ptr, ptr %4, align 8
  %8 = ptrtoint ptr %6 to i64
  %9 = ptrtoint ptr %7 to i64
  %10 = sub i64 %8, %9
  %sext = shl i64 %10, 32
  %11 = ashr exact i64 %sext, 32
  tail call void @llvm.memset.p0.i64(ptr align 1 %7, i8 0, i64 %11, i1 false)
  ret void
}